target datalayout = "e-m:e-p270:32:32-p271:32:32-p272:64:64-i64:64-i128:128-f80:128-n8:16:32:64-S128"
target triple = "x86_64-pc-linux-gnu"

%"struct.llvm::EVT" = type { %"class.llvm::MVT", ptr }
%"class.llvm::MVT" = type { i16 }
%"struct.llvm::Align" = type { i8 }
%"struct.llvm::MachinePointerInfo" = type <{ %"class.llvm::PointerUnion", i64, i32, i8, [3 x i8] }>
%"class.llvm::PointerUnion" = type { %"class.llvm::pointer_union_detail::PointerUnionMembers" }
%"class.llvm::pointer_union_detail::PointerUnionMembers" = type { %"class.llvm::pointer_union_detail::PointerUnionMembers.208" }
%"class.llvm::pointer_union_detail::PointerUnionMembers.208" = type { %"class.llvm::pointer_union_detail::PointerUnionMembers.209" }
%"class.llvm::pointer_union_detail::PointerUnionMembers.209" = type { %"class.llvm::PointerIntPair.210" }
%"class.llvm::PointerIntPair.210" = type { %"struct.llvm::detail::PunnedPointer.211" }
%"struct.llvm::detail::PunnedPointer.211" = type { [8 x i8] }
%"struct.llvm::AAMDNodes" = type { ptr, ptr, ptr, ptr }
%"class.llvm::MachineMemOperand" = type { %"struct.llvm::MachinePointerInfo", %"class.llvm::LLT", i16, %"struct.llvm::Align", %"struct.llvm::MachineMemOperand::MachineAtomicInfo", %"struct.llvm::AAMDNodes", ptr }
%"class.llvm::LLT" = type { i64 }
%"struct.llvm::MachineMemOperand::MachineAtomicInfo" = type { i16, [2 x i8] }

; Function Attrs: mustprogress nounwind uwtable
define linkonce_odr hidden noundef zeroext i16 @_ZNK4llvm17MachineMemOperand8getFlagsEv(ptr noundef nonnull align 8 dereferenceable(80) %0) #1 comdat align 2 {
  %2 = alloca ptr, align 8
  store ptr %0, ptr %2, align 8
  %3 = load ptr, ptr %2, align 8
  %4 = getelementptr inbounds nuw %"class.llvm::MachineMemOperand", ptr %3, i32 0, i32 2
  %5 = load i16, ptr %4, align 8
  ret i16 %5
}

; Function Attrs: mustprogress nounwind uwtable
define linkonce_odr hidden noundef i32 @_ZNK4llvm17MachineMemOperand12getAddrSpaceEv(ptr noundef nonnull align 8 dereferenceable(80) %0) #1 comdat align 2 {
  %2 = alloca ptr, align 8
  store ptr %0, ptr %2, align 8
  %3 = load ptr, ptr %2, align 8
  %4 = getelementptr inbounds nuw %"class.llvm::MachineMemOperand", ptr %3, i32 0, i32 0
  %5 = call noundef i32 @_ZNK4llvm18MachinePointerInfo12getAddrSpaceEv(ptr noundef nonnull align 8 dereferenceable(21) %4)
  ret i32 %5
}

; Function Attrs: mustprogress nounwind uwtable
define dso_local noundef zeroext i1 @_ZNK4llvm18TargetLoweringBase18allowsMemoryAccessERNS_11LLVMContextERKNS_10DataLayoutENS_3EVTERKNS_17MachineMemOperandEPj(ptr noundef nonnull align 8 dereferenceable(408123) %0, ptr noundef nonnull align 8 dereferenceable(8) %1, ptr noundef nonnull align 8 dereferenceable(512) %2, i16 %3, ptr %4, ptr noundef nonnull align 8 dereferenceable(80) %5, ptr noundef %6) #1 align 2 {
  %8 = alloca %"struct.llvm::EVT", align 8
  %9 = alloca ptr, align 8
  %10 = alloca ptr, align 8
  %11 = alloca ptr, align 8
  %12 = alloca ptr, align 8
  %13 = alloca ptr, align 8
  %14 = alloca %"struct.llvm::EVT", align 8
  %15 = alloca %"struct.llvm::Align", align 1
  %16 = getelementptr inbounds nuw { i16, ptr }, ptr %8, i32 0, i32 0
  store i16 %3, ptr %16, align 8
  %17 = getelementptr inbounds nuw { i16, ptr }, ptr %8, i32 0, i32 1
  store ptr %4, ptr %17, align 8
  store ptr %0, ptr %9, align 8
  store ptr %1, ptr %10, align 8
  store ptr %2, ptr %11, align 8
  store ptr %5, ptr %12, align 8
  store ptr %6, ptr %13, align 8
  %18 = load ptr, ptr %9, align 8
  %19 = load ptr, ptr %10, align 8
  %20 = load ptr, ptr %11, align 8
  call void @llvm.memcpy.p0.p0.i64(ptr align 8 %14, ptr align 8 %8, i64 16, i1 false)
  %21 = load ptr, ptr %12, align 8
  %22 = call noundef i32 @_ZNK4llvm17MachineMemOperand12getAddrSpaceEv(ptr noundef nonnull align 8 dereferenceable(80) %21)
  %23 = load ptr, ptr %12, align 8
  %24 = call i8 @_ZNK4llvm17MachineMemOperand8getAlignEv(ptr noundef nonnull align 8 dereferenceable(80) %23)
  %25 = getelementptr inbounds nuw %"struct.llvm::Align", ptr %15, i32 0, i32 0
  store i8 %24, ptr %25, align 1
  %26 = load ptr, ptr %12, align 8
  %27 = call noundef zeroext i16 @_ZNK4llvm17MachineMemOperand8getFlagsEv(ptr noundef nonnull align 8 dereferenceable(80) %26)
  %28 = load ptr, ptr %13, align 8
  %29 = getelementptr inbounds nuw { i16, ptr }, ptr %14, i32 0, i32 0
  %30 = load i16, ptr %29, align 8
  %31 = getelementptr inbounds nuw { i16, ptr }, ptr %14, i32 0, i32 1
  %32 = load ptr, ptr %31, align 8
  %33 = getelementptr inbounds nuw %"struct.llvm::Align", ptr %15, i32 0, i32 0
  %34 = load i8, ptr %33, align 1
  %35 = load ptr, ptr %18, align 8
  %36 = getelementptr inbounds ptr, ptr %35, i64 102
  %37 = load ptr, ptr %36, align 8
  %38 = call noundef zeroext i1 %37(ptr noundef nonnull align 8 dereferenceable(408123) %18, ptr noundef nonnull align 8 dereferenceable(8) %19, ptr noundef nonnull align 8 dereferenceable(512) %20, i16 %30, ptr %32, i32 noundef %22, i8 %34, i16 noundef zeroext %27, ptr noundef %28)
  ret i1 %38
}